target datalayout = "e-m:e-p270:32:32-p271:32:32-p272:64:64-i64:64-i128:128-f80:128-n8:16:32:64-S128"
target triple = "x86_64-pc-linux-gnu"

%"struct.std::pair.64" = type { ptr, ptr }
%"struct.google::protobuf::internal::SerialArena::CleanupNode" = type { ptr, ptr }

@_ZTIN6google8protobuf22ServiceDescriptorProtoE = hidden constant { ptr, ptr, ptr } { ptr getelementptr inbounds (ptr, ptr @_ZTVN10__cxxabiv120__si_class_type_infoE, i64 2), ptr @_ZTSN6google8protobuf22ServiceDescriptorProtoE, ptr @_ZTIN6google8protobuf7MessageE }, align 8
@_ZN6google8protobuf22ServiceDescriptorProtoC1EPNS0_5ArenaEb = hidden unnamed_addr alias void (ptr, ptr, i1), ptr @_ZN6google8protobuf22ServiceDescriptorProtoC2EPNS0_5ArenaEb

; Function Attrs: alwaysinline mustprogress nounwind uwtable
define linkonce_odr hidden noundef ptr @_ZN6google8protobuf8internal7AlignToEPvm(ptr noundef %0, i64 noundef %1) #13 comdat {
  %3 = alloca ptr, align 8
  %4 = alloca i64, align 8
  store ptr %0, ptr %3, align 8, !tbaa !32
  store i64 %1, ptr %4, align 8, !tbaa !68
  %5 = load ptr, ptr %3, align 8, !tbaa !32
  %6 = ptrtoint ptr %5 to i64
  %7 = load i64, ptr %4, align 8, !tbaa !68
  %8 = add i64 %6, %7
  %9 = sub i64 %8, 1
  %10 = load i64, ptr %4, align 8, !tbaa !68
  %11 = xor i64 %10, -1
  %12 = add i64 %11, 1
  %13 = and i64 %9, %12
  %14 = inttoptr i64 %13 to ptr
  ret ptr %14
}

; Function Attrs: inlinehint mustprogress nounwind uwtable
define linkonce_odr hidden noundef i64 @_ZN6google8protobuf8internal10AlignUpTo8Em(i64 noundef %0) #7 comdat {
  %2 = alloca i64, align 8
  store i64 %0, ptr %2, align 8, !tbaa !68
  %3 = load i64, ptr %2, align 8, !tbaa !68
  %4 = add i64 %3, 7
  %5 = and i64 %4, -8
  ret i64 %5
}

; Function Attrs: mustprogress uwtable
define linkonce_odr hidden noundef ptr @_ZN6google8protobuf5Arena23AllocateAlignedWithHookEmmPKSt9type_info(ptr noundef nonnull align 8 dereferenceable(32) %0, i64 noundef %1, i64 noundef %2, ptr noundef %3) #4 comdat align 2 {
  %5 = alloca ptr, align 8
  %6 = alloca ptr, align 8
  %7 = alloca i64, align 8
  %8 = alloca i64, align 8
  %9 = alloca ptr, align 8
  store ptr %0, ptr %6, align 8, !tbaa !12
  store i64 %1, ptr %7, align 8, !tbaa !68
  store i64 %2, ptr %8, align 8, !tbaa !68
  store ptr %3, ptr %9, align 8, !tbaa !578
  %10 = load ptr, ptr %6, align 8
  %11 = load i64, ptr %8, align 8, !tbaa !68
  %12 = icmp ule i64 %11, 8
  br i1 %12, label %13, label %18

13:                                               ; preds = %4
  %14 = load i64, ptr %7, align 8, !tbaa !68
  %15 = call noundef i64 @_ZN6google8protobuf8internal10AlignUpTo8Em(i64 noundef %14)
  %16 = load ptr, ptr %9, align 8, !tbaa !578
  %17 = call noundef ptr @_ZN6google8protobuf5Arena23AllocateAlignedWithHookEmPKSt9type_info(ptr noundef nonnull align 8 dereferenceable(32) %10, i64 noundef %15, ptr noundef %16)
  store ptr %17, ptr %5, align 8
  br label %27

18:                                               ; preds = %4
  %19 = load i64, ptr %7, align 8, !tbaa !68
  %20 = load i64, ptr %8, align 8, !tbaa !68
  %21 = add i64 %19, %20
  %22 = sub i64 %21, 8
  %23 = load ptr, ptr %9, align 8, !tbaa !578
  %24 = call noundef ptr @_ZN6google8protobuf5Arena23AllocateAlignedWithHookEmPKSt9type_info(ptr noundef nonnull align 8 dereferenceable(32) %10, i64 noundef %22, ptr noundef %23)
  %25 = load i64, ptr %8, align 8, !tbaa !68
  %26 = call noundef ptr @_ZN6google8protobuf8internal7AlignToEPvm(ptr noundef %24, i64 noundef %25)
  store ptr %26, ptr %5, align 8
  br label %27

27:                                               ; preds = %18, %13
  %28 = load ptr, ptr %5, align 8
  ret ptr %28
}

; Function Attrs: mustprogress uwtable
define linkonce_odr hidden noundef ptr @_ZN6google8protobuf5Arena14InternalHelperINS0_22ServiceDescriptorProtoEE9ConstructIJPS1_EEEPS3_PvDpOT_(ptr noundef %0, ptr noundef nonnull align 8 dereferenceable(8) %1) #4 comdat align 2 {
  %3 = alloca ptr, align 8
  %4 = alloca ptr, align 8
  store ptr %0, ptr %3, align 8, !tbaa !32
  store ptr %1, ptr %4, align 8, !tbaa !707
  %5 = load ptr, ptr %3, align 8, !tbaa !32
  %6 = load ptr, ptr %4, align 8, !tbaa !707
  %7 = load ptr, ptr %6, align 8, !tbaa !12
  call void @_ZN6google8protobuf22ServiceDescriptorProtoC1EPNS0_5ArenaEb(ptr noundef nonnull align 8 dereferenceable(64) %5, ptr noundef %7, i1 noundef zeroext false)
  ret ptr %5
}

; Function Attrs: alwaysinline mustprogress uwtable
define linkonce_odr hidden noundef ptr @_ZN6google8protobuf5Arena16AllocateInternalEmmPFvPvEPKSt9type_info(ptr noundef nonnull align 8 dereferenceable(32) %0, i64 noundef %1, i64 noundef %2, ptr noundef %3, ptr noundef %4) #8 comdat align 2 {
  %6 = alloca ptr, align 8
  %7 = alloca ptr, align 8
  %8 = alloca i64, align 8
  %9 = alloca i64, align 8
  %10 = alloca ptr, align 8
  %11 = alloca ptr, align 8
  %12 = alloca %"struct.std::pair.64", align 8
  %13 = alloca %"struct.std::pair.64", align 8
  %14 = alloca ptr, align 8
  store ptr %0, ptr %7, align 8, !tbaa !12
  store i64 %1, ptr %8, align 8, !tbaa !68
  store i64 %2, ptr %9, align 8, !tbaa !68
  store ptr %3, ptr %10, align 8, !tbaa !32
  store ptr %4, ptr %11, align 8, !tbaa !578
  %15 = load ptr, ptr %7, align 8
  %16 = load ptr, ptr %10, align 8, !tbaa !32
  %17 = icmp eq ptr %16, null
  br i1 %17, label %18, label %23

18:                                               ; preds = %5
  %19 = load i64, ptr %8, align 8, !tbaa !68
  %20 = load i64, ptr %9, align 8, !tbaa !68
  %21 = load ptr, ptr %11, align 8, !tbaa !578
  %22 = call noundef ptr @_ZN6google8protobuf5Arena23AllocateAlignedWithHookEmmPKSt9type_info(ptr noundef nonnull align 8 dereferenceable(32) %15, i64 noundef %19, i64 noundef %20, ptr noundef %21)
  store ptr %22, ptr %6, align 8
  br label %70

23:                                               ; preds = %5
  %24 = load i64, ptr %9, align 8, !tbaa !68
  %25 = icmp ule i64 %24, 8
  br i1 %25, label %26, label %46

26:                                               ; preds = %23
  call void @llvm.lifetime.start.p0(i64 16, ptr %12) #3
  %27 = load i64, ptr %8, align 8, !tbaa !68
  %28 = call noundef i64 @_ZN6google8protobuf8internal10AlignUpTo8Em(i64 noundef %27)
  %29 = load ptr, ptr %11, align 8, !tbaa !578
  %30 = call { ptr, ptr } @_ZN6google8protobuf5Arena26AllocateAlignedWithCleanupEmPKSt9type_info(ptr noundef nonnull align 8 dereferenceable(32) %15, i64 noundef %28, ptr noundef %29)
  %31 = getelementptr inbounds nuw { ptr, ptr }, ptr %12, i32 0, i32 0
  %32 = extractvalue { ptr, ptr } %30, 0
  store ptr %32, ptr %31, align 8
  %33 = getelementptr inbounds nuw { ptr, ptr }, ptr %12, i32 0, i32 1
  %34 = extractvalue { ptr, ptr } %30, 1
  store ptr %34, ptr %33, align 8
  %35 = getelementptr inbounds nuw %"struct.std::pair.64", ptr %12, i32 0, i32 0
  %36 = load ptr, ptr %35, align 8, !tbaa !580
  %37 = getelementptr inbounds nuw %"struct.std::pair.64", ptr %12, i32 0, i32 1
  %38 = load ptr, ptr %37, align 8, !tbaa !583
  %39 = getelementptr inbounds nuw %"struct.google::protobuf::internal::SerialArena::CleanupNode", ptr %38, i32 0, i32 0
  store ptr %36, ptr %39, align 8, !tbaa !584
  %40 = load ptr, ptr %10, align 8, !tbaa !32
  %41 = getelementptr inbounds nuw %"struct.std::pair.64", ptr %12, i32 0, i32 1
  %42 = load ptr, ptr %41, align 8, !tbaa !583
  %43 = getelementptr inbounds nuw %"struct.google::protobuf::internal::SerialArena::CleanupNode", ptr %42, i32 0, i32 1
  store ptr %40, ptr %43, align 8, !tbaa !586
  %44 = getelementptr inbounds nuw %"struct.std::pair.64", ptr %12, i32 0, i32 0
  %45 = load ptr, ptr %44, align 8, !tbaa !580
  store ptr %45, ptr %6, align 8
  call void @llvm.lifetime.end.p0(i64 16, ptr %12) #3
  br label %70

46:                                               ; preds = %23
  call void @llvm.lifetime.start.p0(i64 16, ptr %13) #3
  %47 = load i64, ptr %8, align 8, !tbaa !68
  %48 = load i64, ptr %9, align 8, !tbaa !68
  %49 = add i64 %47, %48
  %50 = sub i64 %49, 8
  %51 = load ptr, ptr %11, align 8, !tbaa !578
  %52 = call { ptr, ptr } @_ZN6google8protobuf5Arena26AllocateAlignedWithCleanupEmPKSt9type_info(ptr noundef nonnull align 8 dereferenceable(32) %15, i64 noundef %50, ptr noundef %51)
  %53 = getelementptr inbounds nuw { ptr, ptr }, ptr %13, i32 0, i32 0
  %54 = extractvalue { ptr, ptr } %52, 0
  store ptr %54, ptr %53, align 8
  %55 = getelementptr inbounds nuw { ptr, ptr }, ptr %13, i32 0, i32 1
  %56 = extractvalue { ptr, ptr } %52, 1
  store ptr %56, ptr %55, align 8
  call void @llvm.lifetime.start.p0(i64 8, ptr %14) #3
  %57 = getelementptr inbounds nuw %"struct.std::pair.64", ptr %13, i32 0, i32 0
  %58 = load ptr, ptr %57, align 8, !tbaa !580
  %59 = load i64, ptr %9, align 8, !tbaa !68
  %60 = call noundef ptr @_ZN6google8protobuf8internal7AlignToEPvm(ptr noundef %58, i64 noundef %59)
  store ptr %60, ptr %14, align 8, !tbaa !32
  %61 = load ptr, ptr %14, align 8, !tbaa !32
  %62 = getelementptr inbounds nuw %"struct.std::pair.64", ptr %13, i32 0, i32 1
  %63 = load ptr, ptr %62, align 8, !tbaa !583
  %64 = getelementptr inbounds nuw %"struct.google::protobuf::internal::SerialArena::CleanupNode", ptr %63, i32 0, i32 0
  store ptr %61, ptr %64, align 8, !tbaa !584
  %65 = load ptr, ptr %10, align 8, !tbaa !32
  %66 = getelementptr inbounds nuw %"struct.std::pair.64", ptr %13, i32 0, i32 1
  %67 = load ptr, ptr %66, align 8, !tbaa !583
  %68 = getelementptr inbounds nuw %"struct.google::protobuf::internal::SerialArena::CleanupNode", ptr %67, i32 0, i32 1
  store ptr %65, ptr %68, align 8, !tbaa !586
  %69 = load ptr, ptr %14, align 8, !tbaa !32
  store ptr %69, ptr %6, align 8
  call void @llvm.lifetime.end.p0(i64 8, ptr %14) #3
  call void @llvm.lifetime.end.p0(i64 16, ptr %13) #3
  br label %70

70:                                               ; preds = %46, %26, %18
  %71 = load ptr, ptr %6, align 8
  ret ptr %71
}

; Function Attrs: alwaysinline mustprogress uwtable
define linkonce_odr hidden noundef ptr @_ZN6google8protobuf5Arena15DoCreateMessageINS0_22ServiceDescriptorProtoEJEEEPT_DpOT0_(ptr noundef nonnull align 8 dereferenceable(32) %0) #8 comdat align 2 {
  %2 = alloca ptr, align 8
  %3 = alloca ptr, align 8
  store ptr %0, ptr %2, align 8, !tbaa !12
  %4 = load ptr, ptr %2, align 8
  %5 = call noundef ptr @_ZN6google8protobuf5Arena16AllocateInternalEmmPFvPvEPKSt9type_info(ptr noundef nonnull align 8 dereferenceable(32) %4, i64 noundef 64, i64 noundef 8, ptr noundef null, ptr noundef @_ZTIN6google8protobuf22ServiceDescriptorProtoE)
  call void @llvm.lifetime.start.p0(i64 8, ptr %3) #3
  store ptr %4, ptr %3, align 8, !tbaa !12
  %6 = call noundef ptr @_ZN6google8protobuf5Arena14InternalHelperINS0_22ServiceDescriptorProtoEE9ConstructIJPS1_EEEPS3_PvDpOT_(ptr noundef %5, ptr noundef nonnull align 8 dereferenceable(8) %3)
  call void @llvm.lifetime.end.p0(i64 8, ptr %3) #3
  ret ptr %6
}

; Function Attrs: alwaysinline mustprogress uwtable
define linkonce_odr hidden noundef ptr @_ZN6google8protobuf5Arena14InternalHelperINS0_22ServiceDescriptorProtoEE3NewEv() #8 comdat align 2 personality ptr @__gxx_personality_v0 {
  %1 = alloca ptr, align 8
  %2 = alloca i32, align 4
  %3 = call noalias noundef nonnull ptr @_Znwm(i64 noundef 64) #23
  invoke void @_ZN6google8protobuf22ServiceDescriptorProtoC1EPNS0_5ArenaEb(ptr noundef nonnull align 8 dereferenceable(64) %3, ptr noundef null, i1 noundef zeroext false)
          to label %4 unwind label %5

4:                                                ; preds = %0
  ret ptr %3

5:                                                ; preds = %0
  %6 = landingpad { ptr, i32 }
          cleanup
  %7 = extractvalue { ptr, i32 } %6, 0
  store ptr %7, ptr %1, align 8
  %8 = extractvalue { ptr, i32 } %6, 1
  store i32 %8, ptr %2, align 4
  call void @_ZdlPv(ptr noundef %3) #22
  br label %9

9:                                                ; preds = %5
  %10 = load ptr, ptr %1, align 8
  %11 = load i32, ptr %2, align 4
  %12 = insertvalue { ptr, i32 } poison, ptr %10, 0
  %13 = insertvalue { ptr, i32 } %12, i32 %11, 1
  resume { ptr, i32 } %13
}

; Function Attrs: alwaysinline mustprogress uwtable
define linkonce_odr hidden noundef ptr @_ZN6google8protobuf5Arena21CreateMessageInternalINS0_22ServiceDescriptorProtoEEEPT_PS1_(ptr noundef %0) #8 comdat align 2 {
  %2 = alloca ptr, align 8
  %3 = alloca ptr, align 8
  store ptr %0, ptr %3, align 8, !tbaa !12
  %4 = load ptr, ptr %3, align 8, !tbaa !12
  %5 = icmp eq ptr %4, null
  br i1 %5, label %6, label %8

6:                                                ; preds = %1
  %7 = call noundef ptr @_ZN6google8protobuf5Arena14InternalHelperINS0_22ServiceDescriptorProtoEE3NewEv()
  store ptr %7, ptr %2, align 8
  br label %11

8:                                                ; preds = %1
  %9 = load ptr, ptr %3, align 8, !tbaa !12
  %10 = call noundef ptr @_ZN6google8protobuf5Arena15DoCreateMessageINS0_22ServiceDescriptorProtoEJEEEPT_DpOT0_(ptr noundef nonnull align 8 dereferenceable(32) %9)
  store ptr %10, ptr %2, align 8
  br label %11

11:                                               ; preds = %8, %6
  %12 = load ptr, ptr %2, align 8
  ret ptr %12
}

; Function Attrs: mustprogress noinline uwtable
define hidden noundef ptr @_ZN6google8protobuf5Arena18CreateMaybeMessageINS0_22ServiceDescriptorProtoEJEEEPT_PS1_DpOT0_(ptr noundef %0) #17 align 2 {
  %2 = alloca ptr, align 8
  store ptr %0, ptr %2, align 8, !tbaa !12
  %3 = load ptr, ptr %2, align 8, !tbaa !12
  %4 = call noundef ptr @_ZN6google8protobuf5Arena21CreateMessageInternalINS0_22ServiceDescriptorProtoEEEPT_PS1_(ptr noundef %3)
  ret ptr %4
}