; Function Attrs: mustprogress noinline uwtable
define hidden noundef ptr @_ZN6google8protobuf5Arena18CreateMaybeMessageINS0_22ServiceDescriptorProtoEJEEEPT_PS1_DpOT0_(ptr noundef %0) local_unnamed_addr #18 align 2 personality ptr @__gxx_personality_v0 {
  %2 = icmp eq ptr %0, null
  br i1 %2, label %_ZN6google8protobuf5Arena14InternalHelperINS0_22ServiceDescriptorProtoEE3NewEv.exit, label %6

_ZN6google8protobuf5Arena14InternalHelperINS0_22ServiceDescriptorProtoEE3NewEv.exit: ; preds = %1
  %3 = tail call noalias noundef nonnull dereferenceable(64) ptr @_Znwm(i64 noundef 64) #26
  %4 = getelementptr inbounds nuw i8, ptr %3, i64 8
  store i64 0, ptr %4, align 8, !tbaa !8
  store ptr getelementptr inbounds nuw inrange(-16, 152) (i8, ptr @_ZTVN6google8protobuf22ServiceDescriptorProtoE, i64 16), ptr %3, align 8, !tbaa !11
  %.ptr.i = getelementptr inbounds nuw i8, ptr %3, i64 16
  %5 = getelementptr inbounds nuw i8, ptr %3, i64 48
  tail call void @llvm.memset.p0.i64(ptr noundef nonnull align 4 dereferenceable(32) %.ptr.i, i8 0, i64 32, i1 false)
  store ptr @_ZN6google8protobuf8internal26fixed_address_empty_stringB5cxx11E, ptr %5, align 8, !tbaa !84
  br label %_ZN6google8protobuf5Arena21CreateMessageInternalINS0_22ServiceDescriptorProtoEEEPT_PS1_.exit

6:                                                ; preds = %1
  %7 = tail call noundef ptr @_ZN6google8protobuf5Arena23AllocateAlignedWithHookEmPKSt9type_info(ptr noundef nonnull align 8 dereferenceable(32) %0, i64 noundef 64, ptr noundef nonnull @_ZTIN6google8protobuf22ServiceDescriptorProtoE)
  %8 = getelementptr inbounds nuw i8, ptr %7, i64 8
  %9 = ptrtoint ptr %0 to i64
  store i64 %9, ptr %8, align 8, !tbaa !8
  store ptr getelementptr inbounds nuw inrange(-16, 152) (i8, ptr @_ZTVN6google8protobuf22ServiceDescriptorProtoE, i64 16), ptr %7, align 8, !tbaa !11
  %.ptr.i.i = getelementptr inbounds nuw i8, ptr %7, i64 16
  store i32 0, ptr %.ptr.i.i, align 4, !tbaa !58
  %10 = getelementptr inbounds nuw i8, ptr %7, i64 20
  store i32 0, ptr %10, align 4, !tbaa !25
  %11 = getelementptr inbounds nuw i8, ptr %7, i64 24
  store ptr %0, ptr %11, align 8, !tbaa !13
  %12 = getelementptr inbounds nuw i8, ptr %7, i64 32
  tail call void @llvm.memset.p0.i64(ptr noundef nonnull align 8 dereferenceable(16) %12, i8 0, i64 16, i1 false)
  %13 = getelementptr inbounds nuw i8, ptr %7, i64 48
  store ptr @_ZN6google8protobuf8internal26fixed_address_empty_stringB5cxx11E, ptr %13, align 8, !tbaa !84
  br label %_ZN6google8protobuf5Arena21CreateMessageInternalINS0_22ServiceDescriptorProtoEEEPT_PS1_.exit

_ZN6google8protobuf5Arena21CreateMessageInternalINS0_22ServiceDescriptorProtoEEEPT_PS1_.exit: ; preds = %_ZN6google8protobuf5Arena14InternalHelperINS0_22ServiceDescriptorProtoEE3NewEv.exit, %6
  %.sink2 = phi ptr [ %3, %_ZN6google8protobuf5Arena14InternalHelperINS0_22ServiceDescriptorProtoEE3NewEv.exit ], [ %7, %6 ]
  %14 = getelementptr inbounds nuw i8, ptr %.sink2, i64 56
  store ptr null, ptr %14, align 8, !tbaa !342
  ret ptr %.sink2
}